target datalayout = "e-m:e-p270:32:32-p271:32:32-p272:64:64-i64:64-i128:128-f80:128-n8:16:32:64-S128"
target triple = "x86_64-pc-linux-gnu"

%struct.pg_conn = type { ptr, ptr, ptr, ptr, ptr, ptr, ptr, ptr, ptr, ptr, ptr, ptr, ptr, ptr, ptr, ptr, ptr, ptr, ptr, ptr, ptr, ptr, ptr, ptr, ptr, ptr, ptr, ptr, ptr, ptr, ptr, ptr, ptr, ptr, ptr, ptr, ptr, ptr, ptr, ptr, ptr, ptr, ptr, i8, ptr, i32, %struct.PGNoticeHooks, ptr, i32, i32, i32, i32, i32, [6 x i8], i8, i8, i32, i8, i8, i32, i8, i32, ptr, ptr, i32, i32, ptr, ptr, ptr, ptr, ptr, i32, %struct.SockAddr, %struct.SockAddr, i32, i32, i8, i8, i8, i8, i8, i8, ptr, i8, i32, [1 x ptr], i8, i8, ptr, ptr, i32, i32, i32, i8, i8, i32, i32, ptr, i8, i64, ptr, i64, ptr, i32, i32, ptr, i32, i8, i32, i32, i32, i32, ptr, %struct.pg_prng_state, ptr, i32, i32, i32, i32, ptr, i32, i32, i32, i32, ptr, i32, ptr, i8, ptr, ptr, ptr, i32, i8, i8, i8, i8, i8, i8, i8, i8, %struct.PQExpBufferData, i32, %struct.PQExpBufferData }
%struct.PGNoticeHooks = type { ptr, ptr, ptr, ptr }
%struct.SockAddr = type { %struct.sockaddr_storage, i32 }
%struct.sockaddr_storage = type { i16, [118 x i8], i64 }
%struct.pg_prng_state = type { i64, i64 }
%struct.PQExpBufferData = type { ptr, i64, i64 }

@.str.68 = private unnamed_addr constant [18 x i8] c"%s(%s) failed: %s\00", align 1
@.str.69 = private unnamed_addr constant [11 x i8] c"setsockopt\00", align 1
@.str.102 = private unnamed_addr constant [54 x i8] c"invalid integer value \22%s\22 for connection option \22%s\22\00", align 1
@.str.150 = private unnamed_addr constant [17 x i8] c"tcp_user_timeout\00", align 1
@.str.222 = private unnamed_addr constant [17 x i8] c"TCP_USER_TIMEOUT\00", align 1

; Function Attrs: nounwind uwtable
define zeroext i1 @pqParseIntParam(ptr noundef %0, ptr noundef %1, ptr noundef %2, ptr noundef %3) #0 {
  %5 = alloca i1, align 1
  %6 = alloca ptr, align 8
  %7 = alloca ptr, align 8
  %8 = alloca ptr, align 8
  %9 = alloca ptr, align 8
  %10 = alloca ptr, align 8
  %11 = alloca i64, align 8
  %12 = alloca i32, align 4
  store ptr %0, ptr %6, align 8
  store ptr %1, ptr %7, align 8
  store ptr %2, ptr %8, align 8
  store ptr %3, ptr %9, align 8
  call void @llvm.lifetime.start.p0(i64 8, ptr %10) #12
  call void @llvm.lifetime.start.p0(i64 8, ptr %11) #12
  %13 = load ptr, ptr %7, align 8
  store i32 0, ptr %13, align 4
  %14 = call ptr @__errno_location() #16
  store i32 0, ptr %14, align 4
  %15 = load ptr, ptr %6, align 8
  %16 = call i64 @strtol(ptr noundef %15, ptr noundef %10, i32 noundef 10) #12
  store i64 %16, ptr %11, align 8
  %17 = load ptr, ptr %6, align 8
  %18 = load ptr, ptr %10, align 8
  %19 = icmp eq ptr %17, %18
  br i1 %19, label %30, label %20

20:                                               ; preds = %4
  %21 = call ptr @__errno_location() #16
  %22 = load i32, ptr %21, align 4
  %23 = icmp ne i32 %22, 0
  br i1 %23, label %30, label %24

24:                                               ; preds = %20
  %25 = load i64, ptr %11, align 8
  %26 = load i64, ptr %11, align 8
  %27 = trunc i64 %26 to i32
  %28 = sext i32 %27 to i64
  %29 = icmp ne i64 %25, %28
  br i1 %29, label %30, label %31

30:                                               ; preds = %24, %20, %4
  br label %64

31:                                               ; preds = %24
  br label %32

32:                                               ; preds = %51, %31
  %33 = load ptr, ptr %10, align 8
  %34 = load i8, ptr %33, align 1
  %35 = sext i8 %34 to i32
  %36 = icmp ne i32 %35, 0
  br i1 %36, label %37, label %49

37:                                               ; preds = %32
  %38 = call ptr @__ctype_b_loc() #16
  %39 = load ptr, ptr %38, align 8
  %40 = load ptr, ptr %10, align 8
  %41 = load i8, ptr %40, align 1
  %42 = zext i8 %41 to i32
  %43 = sext i32 %42 to i64
  %44 = getelementptr inbounds i16, ptr %39, i64 %43
  %45 = load i16, ptr %44, align 2
  %46 = zext i16 %45 to i32
  %47 = and i32 %46, 8192
  %48 = icmp ne i32 %47, 0
  br label %49

49:                                               ; preds = %37, %32
  %50 = phi i1 [ false, %32 ], [ %48, %37 ]
  br i1 %50, label %51, label %54

51:                                               ; preds = %49
  %52 = load ptr, ptr %10, align 8
  %53 = getelementptr inbounds nuw i8, ptr %52, i32 1
  store ptr %53, ptr %10, align 8
  br label %32, !llvm.loop !37

54:                                               ; preds = %49
  %55 = load ptr, ptr %10, align 8
  %56 = load i8, ptr %55, align 1
  %57 = sext i8 %56 to i32
  %58 = icmp ne i32 %57, 0
  br i1 %58, label %59, label %60

59:                                               ; preds = %54
  br label %64

60:                                               ; preds = %54
  %61 = load i64, ptr %11, align 8
  %62 = trunc i64 %61 to i32
  %63 = load ptr, ptr %7, align 8
  store i32 %62, ptr %63, align 4
  store i1 true, ptr %5, align 1
  store i32 1, ptr %12, align 4
  br label %68

64:                                               ; preds = %59, %30
  %65 = load ptr, ptr %8, align 8
  %66 = load ptr, ptr %6, align 8
  %67 = load ptr, ptr %9, align 8
  call void (ptr, ptr, ...) @libpq_append_conn_error(ptr noundef %65, ptr noundef @.str.102, ptr noundef %66, ptr noundef %67)
  store i1 false, ptr %5, align 1
  store i32 1, ptr %12, align 4
  br label %68

68:                                               ; preds = %64, %60
  call void @llvm.lifetime.end.p0(i64 8, ptr %11) #12
  call void @llvm.lifetime.end.p0(i64 8, ptr %10) #12
  %69 = load i1, ptr %5, align 1
  ret i1 %69
}

; Function Attrs: nounwind uwtable
define internal i32 @setTCPUserTimeout(ptr noundef %0) #0 {
  %2 = alloca i32, align 4
  %3 = alloca ptr, align 8
  %4 = alloca i32, align 4
  %5 = alloca i32, align 4
  %6 = alloca [256 x i8], align 16
  store ptr %0, ptr %3, align 8
  call void @llvm.lifetime.start.p0(i64 4, ptr %4) #12
  %7 = load ptr, ptr %3, align 8
  %8 = getelementptr inbounds nuw %struct.pg_conn, ptr %7, i32 0, i32 4
  %9 = load ptr, ptr %8, align 8
  %10 = icmp eq ptr %9, null
  br i1 %10, label %11, label %12

11:                                               ; preds = %1
  store i32 1, ptr %2, align 4
  store i32 1, ptr %5, align 4
  br label %36

12:                                               ; preds = %1
  %13 = load ptr, ptr %3, align 8
  %14 = getelementptr inbounds nuw %struct.pg_conn, ptr %13, i32 0, i32 4
  %15 = load ptr, ptr %14, align 8
  %16 = load ptr, ptr %3, align 8
  %17 = call zeroext i1 @pqParseIntParam(ptr noundef %15, ptr noundef %4, ptr noundef %16, ptr noundef @.str.150)
  br i1 %17, label %19, label %18

18:                                               ; preds = %12
  store i32 0, ptr %2, align 4
  store i32 1, ptr %5, align 4
  br label %36

19:                                               ; preds = %12
  %20 = load i32, ptr %4, align 4
  %21 = icmp slt i32 %20, 0
  br i1 %21, label %22, label %23

22:                                               ; preds = %19
  store i32 0, ptr %4, align 4
  br label %23

23:                                               ; preds = %22, %19
  %24 = load ptr, ptr %3, align 8
  %25 = getelementptr inbounds nuw %struct.pg_conn, ptr %24, i32 0, i32 71
  %26 = load i32, ptr %25, align 8
  %27 = call i32 @setsockopt(i32 noundef %26, i32 noundef 6, i32 noundef 18, ptr noundef %4, i32 noundef 4) #12
  %28 = icmp slt i32 %27, 0
  br i1 %28, label %29, label %35

29:                                               ; preds = %23
  call void @llvm.lifetime.start.p0(i64 256, ptr %6) #12
  %30 = load ptr, ptr %3, align 8
  %31 = call ptr @__errno_location() #16
  %32 = load i32, ptr %31, align 4
  %33 = getelementptr inbounds [256 x i8], ptr %6, i64 0, i64 0
  %34 = call ptr @pg_strerror_r(i32 noundef %32, ptr noundef %33, i64 noundef 256)
  call void (ptr, ptr, ...) @libpq_append_conn_error(ptr noundef %30, ptr noundef @.str.68, ptr noundef @.str.69, ptr noundef @.str.222, ptr noundef %34)
  store i32 0, ptr %2, align 4
  store i32 1, ptr %5, align 4
  call void @llvm.lifetime.end.p0(i64 256, ptr %6) #12
  br label %36

35:                                               ; preds = %23
  store i32 1, ptr %2, align 4
  store i32 1, ptr %5, align 4
  br label %36

36:                                               ; preds = %35, %29, %18, %11
  call void @llvm.lifetime.end.p0(i64 4, ptr %4) #12
  %37 = load i32, ptr %2, align 4
  ret i32 %37
}